(dp1
S'skel'
p2
ccopy_reg
_reconstructor
p3
(ctwisted.plugin
CachedDropin
p4
c__builtin__
object
p5
NtRp6
(dp7
S'moduleName'
p8
S'plugins.skel'
p9
sS'description'
p10
NsS'plugins'
p11
(lp12
g3
(ctwisted.plugin
CachedPlugin
p13
g5
NtRp14
(dp15
S'provided'
p16
(lp17
ctwisted.plugin
IPlugin
p18
acplugoo.tests
ITest
p19
asS'dropin'
p20
g6
sS'name'
p21
S'skel'
p22
sg10
NsbasbsS'bridget'
p23
g3
(g4
g5
NtRp24
(dp25
g8
S'ooni.plugins.bridget'
p26
sg10
Nsg11
(lp27
g3
(g13
g5
NtRp28
(dp29
g16
(lp30
g18
ag19
asg20
g24
sg21
S'bridget'
p31
sg10
NsbasbsS'blocking'
p32
g3
(g4
g5
NtRp33
(dp34
g8
S'ooni.plugins.blocking'
p35
sg10
Nsg11
(lp36
g3
(g13
g5
NtRp37
(dp38
g16
(lp39
g18
acooni.plugoo.tests
ITest
p40
asg20
g33
sg21
S'blocking'
p41
sg10
NsbasbsS'httphost'
p42
g3
(g4
g5
NtRp43
(dp44
g8
S'ooni.plugins.httphost'
p45
sg10
S'\n    HTTP Host based filtering\n    *************************\n\n    This test detect HTTP Host field\n    based filtering.\n'
p46
sg11
(lp47
g3
(g13
g5
NtRp48
(dp49
g16
(lp50
g18
ag40
asg20
g43
sg21
S'httphost'
p51
sg10
NsbasbsS'tcpscan'
p52
g3
(g4
g5
NtRp53
(dp54
g8
S'plugins.tcpscan'
p55
sg10
Nsg11
(lp56
g3
(g13
g5
NtRp57
(dp58
g16
(lp59
g18
ag40
asg20
g53
sg21
S'tcpscan'
p60
sg10
Nsbasbs.